# symbols: 291
000000000000a650 P _Znam
000000000000a660 P __errno_location
000000000000a670 P _ZSt29_Rb_tree_insert_and_rebalancebPSt18_Rb_tree_node_baseS0_RS_
000000000000a680 P _ZN6snappy21GetUncompressedLengthEPKcmPm
000000000000a690 P _ZSt9terminatev
000000000000a6a0 P _ZNKSt7__cxx1112basic_stringIcSt11char_traitsIcESaIcEE7compareEPKc
000000000000a6b0 P _ZNSt18condition_variable4waitERSt11unique_lockISt5mutexE
000000000000a6c0 P _ZNSt8ios_baseC2Ev
000000000000a6d0 P nanosleep
000000000000a6e0 P _ZNSt7__cxx1112basic_stringIcSt11char_traitsIcESaIcEE6resizeEmc
000000000000a6f0 P _ZNSt7__cxx1112basic_stringIcSt11char_traitsIcESaIcEE9_M_appendEPKcm
000000000000a700 P _ZNSt8ios_baseD2Ev
000000000000a710 P strerror
000000000000a720 P write
000000000000a730 P _ZSt17__throw_bad_allocv
000000000000a740 P rmdir
000000000000a750 P strlen
000000000000a760 P memcmp
000000000000a770 P _ZNSt6thread6_StateD2Ev
000000000000a780 P mkdir
000000000000a790 P unlink
000000000000a7a0 P fdatasync
000000000000a7b0 P _ZNSt18condition_variable10notify_oneEv
000000000000a7c0 P localtime_r
000000000000a7d0 P _ZSt20__throw_length_errorPKc
000000000000a7e0 P _ZNSt7__cxx1112basic_stringIcSt11char_traitsIcESaIcEE9_M_assignERKS4_
000000000000a7f0 P memset
000000000000a800 P abort
000000000000a810 P munmap
000000000000a820 P fcntl
000000000000a830 P geteuid
000000000000a840 P _ZSt28_Rb_tree_rebalance_for_erasePSt18_Rb_tree_node_baseRS_
000000000000a850 P __snprintf_chk
000000000000a860 P rename
000000000000a870 P __cxa_guard_release
000000000000a880 P __assert_fail
000000000000a890 P _ZSt20__throw_system_errori
000000000000a8a0 P _ZNSo9_M_insertImEERSoT_
000000000000a8b0 P _ZSt18_Rb_tree_incrementPSt18_Rb_tree_node_base
000000000000a8c0 P _ZSt19__throw_logic_errorPKc
000000000000a8d0 P _ZNSt7__cxx1112basic_stringIcSt11char_traitsIcESaIcEE4swapERS4_
000000000000a8e0 P _ZN6snappy19MaxCompressedLengthEm
000000000000a8f0 P open
000000000000a900 P pthread_mutex_unlock
000000000000a910 P _ZSt28__throw_bad_array_new_lengthv
000000000000a920 P __vsnprintf_chk
000000000000a930 P memcpy
000000000000a940 P pthread_self
000000000000a950 P stat
000000000000a960 P _ZNSt6thread15_M_start_threadESt10unique_ptrINS_6_StateESt14default_deleteIS1_EEPFvvE
000000000000a970 P _ZdlPv
000000000000a980 P fclose
000000000000a990 P _Znwm
000000000000a9a0 P _ZSt18_Rb_tree_decrementPSt18_Rb_tree_node_base
000000000000a9b0 P fdopen
000000000000a9c0 P strrchr
000000000000a9d0 P __stack_chk_fail
000000000000a9e0 P _ZSt16__ostream_insertIcSt11char_traitsIcEERSt13basic_ostreamIT_T0_ES6_PKS3_l
000000000000a9f0 P _ZSt18_Rb_tree_incrementPKSt18_Rb_tree_node_base
000000000000aa00 P _ZN6snappy13RawUncompressEPKcmPc
000000000000aa10 P fflush
000000000000aa20 P free
000000000000aa30 P getenv
000000000000aa40 P pread
000000000000aa50 P _ZdaPv
000000000000aa60 P _ZNKSt7__cxx1112basic_stringIcSt11char_traitsIcESaIcEE4findEcm
000000000000aa70 P malloc
000000000000aa80 P _ZN6snappy11RawCompressEPKcmPcPm
000000000000aa90 P _ZNSt9basic_iosIcSt11char_traitsIcEE4initEPSt15basic_streambufIcS1_E
000000000000aaa0 P _ZNSt18condition_variableC1Ev
000000000000aab0 P getrlimit
000000000000aac0 P _ZNSt6localeD1Ev
000000000000aad0 P read
000000000000aae0 P pthread_mutex_lock
000000000000aaf0 P opendir
000000000000ab00 P readdir
000000000000ab10 P _ZNSt7__cxx1112basic_stringIcSt11char_traitsIcESaIcEE10_M_replaceEmmPKcm
000000000000ab20 P _ZNSt7__cxx1112basic_stringIcSt11char_traitsIcESaIcEE7reserveEm
000000000000ab30 P closedir
000000000000ab40 P gettimeofday
000000000000ab50 P memmove
000000000000ab60 P __fprintf_chk
000000000000ab70 P access
000000000000ab80 P _ZNSt18condition_variable10notify_allEv
000000000000ab90 P _ZNSolsEi
000000000000aba0 P _ZNSt6thread6detachEv
000000000000abb0 P mmap
000000000000abc0 P _ZNSt7__cxx1112basic_stringIcSt11char_traitsIcESaIcEE9_M_createERmm
000000000000abd0 P _ZNSt7__cxx1112basic_stringIcSt11char_traitsIcESaIcEE9_M_mutateEmmPKcm
000000000000abe0 P __cxa_guard_acquire
000000000000abf0 P _ZNSt18condition_variableD1Ev
000000000000ac00 P strdup
000000000000ac10 P lseek
000000000000ac20 P fwrite
000000000000ac30 P close
000000000000ac40 P _ZNKSt7__cxx1112basic_stringIcSt11char_traitsIcESaIcEE5rfindEcm
000000000000ac50 P _ZNSt6localeC1Ev
000000000000ac60 ? __dynsym_end
000000000000b300 T _ZN7leveldb8SnapshotD2Ev
000000000000b350 T _ZN7leveldb8SnapshotD0Ev
000000000000baf0 T leveldb_create_iterator
000000000000bb30 T leveldb_create_snapshot
000000000000bb70 T leveldb_release_snapshot
000000000000bb90 T leveldb_property_value
000000000000bc40 T leveldb_approximate_sizes
000000000000bd50 T leveldb_compact_range
000000000000bde0 T leveldb_iter_destroy
000000000000be00 T leveldb_iter_valid
000000000000be10 T leveldb_iter_seek_to_first
000000000000be20 T leveldb_iter_seek_to_last
000000000000be30 T leveldb_iter_seek
000000000000be80 T leveldb_iter_next
000000000000be90 T leveldb_iter_prev
000000000000bea0 T leveldb_iter_key
000000000000bec0 T leveldb_iter_value
000000000000bee0 T leveldb_options_destroy
000000000000bf00 T leveldb_options_set_comparator
000000000000bf10 T leveldb_options_set_filter_policy
000000000000bf20 T leveldb_options_set_create_if_missing
000000000000bf30 T leveldb_options_set_error_if_exists
000000000000bf40 T leveldb_options_set_paranoid_checks
000000000000bf50 T leveldb_options_set_env
000000000000bf70 T leveldb_options_set_info_log
000000000000bf90 T leveldb_options_set_write_buffer_size
000000000000bfa0 T leveldb_options_set_max_open_files
000000000000bfb0 T leveldb_options_set_cache
000000000000bfc0 T leveldb_options_set_block_size
000000000000bfd0 T leveldb_options_set_block_restart_interval
000000000000bfe0 T leveldb_options_set_max_file_size
000000000000bff0 T leveldb_options_set_compression
000000000000c000 T leveldb_comparator_create
000000000000c050 T leveldb_filterpolicy_create
000000000000c0a0 T leveldb_filterpolicy_destroy
000000000000c0c0 T leveldb_readoptions_create
000000000000c0f0 T leveldb_readoptions_destroy
000000000000c110 T leveldb_readoptions_set_verify_checksums
000000000000c120 T leveldb_readoptions_set_fill_cache
000000000000c130 T leveldb_readoptions_set_snapshot
000000000000c150 T leveldb_writeoptions_create
000000000000c170 T leveldb_writeoptions_destroy
000000000000c190 T leveldb_writeoptions_set_sync
000000000000c1a0 T leveldb_env_destroy
000000000000c1d0 T leveldb_env_get_test_directory
000000000000c290 T leveldb_free
000000000000c2a0 T leveldb_major_version
000000000000c2b0 T leveldb_minor_version
000000000000cb70 T _ZN7leveldb2DBD1Ev
000000000000cb80 T _ZN7leveldb2DBD0Ev
000000000000eaf0 T leveldb_comparator_destroy
000000000000ecf0 T leveldb_write
000000000000ed60 T leveldb_get
000000000000ee70 T leveldb_iter_get_error
000000000000ef80 T leveldb_repair_db
000000000000f040 T leveldb_writebatch_clear
000000000000f050 T leveldb_writebatch_put
000000000000f0b0 T leveldb_writebatch_delete
000000000000f140 T leveldb_writebatch_iterate
000000000000f1d0 T leveldb_writebatch_append
000000000000f1e0 T leveldb_filterpolicy_create_bloom
000000000000f240 T leveldb_cache_create_lru
000000000000f640 T leveldb_cache_destroy
000000000000f790 T leveldb_create_default_env
000000000000ffd0 T _ZN7leveldb9DestroyDBERKNSt7__cxx1112basic_stringIcSt11char_traitsIcESaIcEEERKNS_7OptionsE
0000000000010430 T leveldb_destroy_db
0000000000011a00 T leveldb_writebatch_create
0000000000011a30 T leveldb_writebatch_destroy
0000000000011a60 T _ZN7leveldb2DB3PutERKNS_12WriteOptionsERKNS_5SliceES6_
0000000000011b40 T leveldb_put
0000000000011bf0 T _ZN7leveldb2DB6DeleteERKNS_12WriteOptionsERKNS_5SliceE
0000000000011cd0 T leveldb_delete
0000000000011d70 T leveldb_options_create
0000000000012340 T leveldb_close
00000000000160d0 T _ZN7leveldb2DB4OpenERKNS_7OptionsERKNSt7__cxx1112basic_stringIcSt11char_traitsIcESaIcEEEPPS0_
00000000000191d0 T leveldb_open
0000000000022e70 T _ZN7leveldb8DumpFileEPNS_3EnvERKNSt7__cxx1112basic_stringIcSt11char_traitsIcESaIcEEEPNS_12WritableFileE
0000000000023a00 T _ZN7leveldb8RepairDBERKNSt7__cxx1112basic_stringIcSt11char_traitsIcESaIcEEERKNS_7OptionsE
0000000000026550 T _ZN7leveldb3Env9DeleteDirERKNSt7__cxx1112basic_stringIcSt11char_traitsIcESaIcEEE
0000000000026590 T _ZN7leveldb3Env9RemoveDirERKNSt7__cxx1112basic_stringIcSt11char_traitsIcESaIcEEE
00000000000265f0 T _ZN7leveldb3Env10DeleteFileERKNSt7__cxx1112basic_stringIcSt11char_traitsIcESaIcEEE
0000000000026630 T _ZN7leveldb3Env10RemoveFileERKNSt7__cxx1112basic_stringIcSt11char_traitsIcESaIcEEE
0000000000026690 T _ZN7leveldb8FileLockD1Ev
00000000000266f0 T _ZN7leveldb8FileLockD0Ev
00000000000290c0 T _ZN7leveldb10WriteBatchD2Ev
00000000000290f0 T _ZN7leveldb10WriteBatch7HandlerD2Ev
0000000000029120 T _ZN7leveldb10WriteBatch7HandlerD0Ev
0000000000029140 T _ZN7leveldb10WriteBatch5ClearEv
0000000000029160 T _ZN7leveldb10WriteBatchC1Ev
0000000000029180 T _ZNK7leveldb10WriteBatch15ApproximateSizeEv
0000000000029200 T _ZN7leveldb10WriteBatch6AppendERKS0_
0000000000029260 T _ZN7leveldb8IteratorC2Ev
0000000000029290 T _ZN7leveldb8IteratorD1Ev
00000000000294f0 T _ZN7leveldb8IteratorD0Ev
0000000000029510 T _ZN7leveldb8Iterator15RegisterCleanupEPFvPvS1_ES1_S1_
00000000000295a0 T _ZN7leveldb12TableBuilderC1ERKNS_7OptionsEPNS_12WritableFileE
0000000000029780 T _ZN7leveldb12TableBuilderD2Ev
0000000000029910 T _ZN7leveldb12TableBuilder7AbandonEv
0000000000029950 T _ZNK7leveldb12TableBuilder10NumEntriesEv
0000000000029960 T _ZNK7leveldb12TableBuilder8FileSizeEv
0000000000029970 T _ZN7leveldb5TableD1Ev
0000000000029d20 T _ZN7leveldb20NewBloomFilterPolicyEi
0000000000029da0 T _ZN7leveldb5CacheD2Ev
0000000000029db0 T _ZN7leveldb5CacheD0Ev
000000000002a8b0 T _ZN7leveldb11NewLRUCacheEm
000000000002ab20 T _ZN7leveldb10WriteBatch3PutERKNS_5SliceES3_
000000000002ac90 T _ZN7leveldb10WriteBatch6DeleteERKNS_5SliceE
000000000002b330 T _ZN7leveldb10ComparatorD2Ev
000000000002b3f0 T _ZN7leveldb10ComparatorD0Ev
000000000002b410 T _ZN7leveldb18BytewiseComparatorEv
000000000002b780 T _ZN7leveldb12TableBuilder13WriteRawBlockERKNS_5SliceENS_15CompressionTypeEPNS_11BlockHandleE
000000000002b8d0 T _ZN7leveldb3EnvC2Ev
000000000002b8f0 T _ZN7leveldb3EnvD2Ev
000000000002b900 T _ZN7leveldb10EnvWrapperD2Ev
000000000002b920 T _ZN7leveldb10EnvWrapperD0Ev
000000000002b940 T _ZN7leveldb3EnvD0Ev
000000000002b960 T _ZN7leveldb14SequentialFileD1Ev
000000000002bbd0 T _ZN7leveldb14SequentialFileD0Ev
000000000002bbf0 T _ZN7leveldb16RandomAccessFileD1Ev
000000000002bd50 T _ZN7leveldb16RandomAccessFileD0Ev
000000000002bd70 T _ZN7leveldb12WritableFileD2Ev
000000000002bd80 T _ZN7leveldb12WritableFileD0Ev
000000000002bda0 T _ZN7leveldb6LoggerD2Ev
000000000002be10 T _ZN7leveldb6LoggerD0Ev
000000000002c070 T _ZN7leveldb17WriteStringToFileEPNS_3EnvERKNS_5SliceERKNSt7__cxx1112basic_stringIcSt11char_traitsIcESaIcEEE
000000000002c0c0 T _ZN7leveldb16ReadFileToStringEPNS_3EnvERKNSt7__cxx1112basic_stringIcSt11char_traitsIcESaIcEEEPS7_
000000000002c200 T _ZN7leveldb12FilterPolicyD1Ev
000000000002c250 T _ZN7leveldb12FilterPolicyD0Ev
000000000002cac0 T _ZN7leveldb6Status9CopyStateEPKc
000000000002cb60 T _ZN7leveldb16NewEmptyIteratorEv
000000000002cd20 T _ZN7leveldb16NewErrorIteratorERKNS_6StatusE
000000000002cd70 T _ZNK7leveldb12TableBuilder6statusEv
000000000002cda0 T _ZN7leveldb12TableBuilder10WriteBlockEPNS_12BlockBuilderEPNS_11BlockHandleE
000000000002d040 T _ZN7leveldb12TableBuilder5FlushEv
000000000002d1e0 T _ZN7leveldb12TableBuilder3AddERKNS_5SliceES3_
000000000002d4d0 T _ZN7leveldb12TableBuilder6FinishEv
000000000002e320 T _ZN7leveldb6StatusC1ENS0_4CodeERKNS_5SliceES4_
000000000002e420 T _ZNK7leveldb10WriteBatch7IterateEPNS0_7HandlerE
000000000002f280 T _ZNK7leveldb5Table11NewIteratorERKNS_11ReadOptionsE
000000000002f450 T _ZNK7leveldb5Table19ApproximateOffsetOfERKNS_5SliceE
000000000002f870 T _ZN7leveldb5Table10ReadFilterERKNS_5SliceE
000000000002f9e0 T _ZN7leveldb5Table8ReadMetaERKNS_6FooterE
000000000002fc10 T _ZN7leveldb5Table11BlockReaderEPvRKNS_11ReadOptionsERKNS_5SliceE
00000000000300d0 T _ZN7leveldb5Table11InternalGetERKNS_11ReadOptionsERKNS_5SliceEPvPFvS7_S6_S6_E
0000000000030370 T _ZN7leveldb12TableBuilder13ChangeOptionsERKNS_7OptionsE
0000000000030490 T _ZN7leveldb3Env17NewAppendableFileERKNSt7__cxx1112basic_stringIcSt11char_traitsIcESaIcEEEPPNS_12WritableFileE
0000000000032b80 T _ZNK7leveldb6Status8ToStringB5cxx11Ev
0000000000032d60 T _ZN7leveldb3Env7DefaultEv
0000000000032fd0 T _ZN7leveldb7OptionsC2Ev
0000000000033040 T _ZN7leveldb5Table4OpenERKNS_7OptionsEPNS_16RandomAccessFileEmPPS0_
0000000000036f10 T _ZN7leveldb9NewMemEnvEPNS_3EnvE
0000000000036f91 ? __func_end
000000000003a5f0 D _ZTSN7leveldb8IteratorE
000000000003a630 D _ZTSN7leveldb8SnapshotE
000000000003a648 D _ZTSN7leveldb2DBE
000000000003a710 D _ZTSN7leveldb5CacheE
000000000003a7b0 D _ZTSN7leveldb10WriteBatch7HandlerE
000000000003a810 D _ZTSN7leveldb12FilterPolicyE
000000000003a850 D _ZTSN7leveldb10ComparatorE
000000000003a888 D _ZTSN7leveldb3EnvE
000000000003a8a0 D _ZTSN7leveldb10EnvWrapperE
000000000003d760 D _ZTSNSt6thread11_State_implINS_8_InvokerISt5tupleIJPFvPvES3_EEEEEE
000000000003d810 D _ZTSN7leveldb12WritableFileE
000000000003d8c0 D _ZTSN7leveldb16RandomAccessFileE
000000000003d920 D _ZTSN7leveldb14SequentialFileE
000000000003d970 D _ZTSN7leveldb6LoggerE
000000000003d9b0 D _ZTSN7leveldb8FileLockE
00000000000493b8 D _ZTVN7leveldb8IteratorE
0000000000049420 D _ZTIN7leveldb8IteratorE
0000000000049448 D _ZTVN7leveldb8SnapshotE
0000000000049468 D _ZTVN7leveldb2DBE
00000000000494d8 D _ZTIN7leveldb8SnapshotE
00000000000494e8 D _ZTIN7leveldb2DBE
0000000000049558 D _ZTVN7leveldb5CacheE
00000000000495b8 D _ZTIN7leveldb5CacheE
00000000000495f8 D _ZTVN7leveldb10WriteBatch7HandlerE
0000000000049628 D _ZTIN7leveldb10WriteBatch7HandlerE
0000000000049650 D _ZTVN7leveldb12FilterPolicyE
0000000000049688 D _ZTIN7leveldb12FilterPolicyE
00000000000496b0 D _ZTVN7leveldb10ComparatorE
00000000000496f0 D _ZTIN7leveldb10ComparatorE
0000000000049718 D _ZTVN7leveldb3EnvE
00000000000497e0 D _ZTIN7leveldb3EnvE
00000000000497f0 D _ZTIN7leveldb10EnvWrapperE
0000000000049808 D _ZTVN7leveldb10EnvWrapperE
0000000000049990 D _ZTVN7leveldb12WritableFileE
00000000000499d0 D _ZTIN7leveldb12WritableFileE
0000000000049a10 D _ZTVN7leveldb16RandomAccessFileE
0000000000049a38 D _ZTIN7leveldb16RandomAccessFileE
0000000000049a60 D _ZTVN7leveldb14SequentialFileE
0000000000049a90 D _ZTIN7leveldb14SequentialFileE
0000000000049ab8 D _ZTVN7leveldb6LoggerE
0000000000049ae0 D _ZTIN7leveldb6LoggerE
0000000000049b08 D _ZTIN7leveldb8FileLockE
0000000000049b18 D _ZTVN7leveldb8FileLockE
0000000000049b38 ? __sym_end
