# symbols: 70
0000000000002110 P _Znam
0000000000002120 P _ZNSt7__cxx1112basic_stringIcSt11char_traitsIcESaIcEE6resizeEmc
0000000000002130 P _ZNSt7__cxx1112basic_stringIcSt11char_traitsIcESaIcEE9_M_appendEPKcm
0000000000002140 P _ZSt17__throw_bad_allocv
0000000000002150 P _ZSt20__throw_length_errorPKc
0000000000002160 P memset
0000000000002170 P memcpy
0000000000002180 P _ZdlPv
0000000000002190 P _Znwm
00000000000021a0 P __stack_chk_fail
00000000000021b0 P _ZdaPv
00000000000021c0 P memmove
00000000000021d0 P _Unwind_Resume
00000000000021e0 ? __dynsym_end
00000000000023c0 T _ZN6snappy4Sink15GetAppendBufferEmPc
00000000000023d0 T _ZN6snappy4Sink23GetAppendBufferVariableEmmPcmPm
00000000000023e0 T _ZNK6snappy15ByteArraySource9AvailableEv
00000000000023f0 T _ZN6snappy15ByteArraySource4PeekEPm
0000000000002400 T _ZN6snappy15ByteArraySource4SkipEm
0000000000002410 T _ZN6snappy22UncheckedByteArraySink15GetAppendBufferEmPc
0000000000002420 T _ZN6snappy22UncheckedByteArraySink23GetAppendBufferVariableEmmPcmPm
0000000000002460 T _ZN6snappy22UncheckedByteArraySink6AppendEPKcm
0000000000002490 T _ZN6snappy4Sink22AppendAndTakeOwnershipEPcmPFvPvPKcmES2_
0000000000002500 T _ZN6snappy22UncheckedByteArraySink22AppendAndTakeOwnershipEPcmPFvPvPKcmES2_
00000000000026e0 T _ZN6snappy19SnappySinkAllocator7DeleterEPvPKcm
0000000000002a30 T _ZN6snappy6SourceD1Ev
0000000000002a40 T _ZN6snappy15ByteArraySourceD1Ev
0000000000002a60 T _ZN6snappy15ByteArraySourceD0Ev
0000000000002a80 T _ZN6snappy6SourceD0Ev
0000000000002aa0 T _ZN6snappy4SinkD1Ev
0000000000002ab0 T _ZN6snappy22UncheckedByteArraySinkD2Ev
0000000000002ad0 T _ZN6snappy22UncheckedByteArraySinkD0Ev
0000000000002af0 T _ZN6snappy4SinkD0Ev
0000000000002b10 T _ZN6snappy6Varint8Append32EPNSt7__cxx1112basic_stringIcSt11char_traitsIcESaIcEEEj
0000000000002c30 T _ZN6snappy19MaxCompressedLengthEm
0000000000002c50 T snappy_max_compressed_length
0000000000002c60 T _ZN6snappy21GetUncompressedLengthEPKcmPm
0000000000002d30 T snappy_uncompressed_length
0000000000002d50 T _ZN6snappy8internal13WorkingMemoryC2Em
0000000000002df0 T _ZN6snappy8internal13WorkingMemoryD1Ev
0000000000002e00 T _ZNK6snappy8internal13WorkingMemory12GetHashTableEmPi
0000000000002e70 T _ZN6snappy8internal16CompressFragmentEPKcmPcPti
00000000000032c0 T _ZN6snappy18SnappyDecompressor9RefillTagEv
0000000000004140 T _ZN6snappy21GetUncompressedLengthEPNS_6SourceEPj
00000000000042b0 T _ZN6snappy8CompressEPNS_6SourceEPNS_4SinkE
00000000000046e0 T _ZN6snappy20RawUncompressToIOVecEPNS_6SourceEPK5iovecm
0000000000004ee0 T _ZN6snappy20RawUncompressToIOVecEPKcmPK5iovecm
0000000000004f60 T _ZN6snappy13RawUncompressEPNS_6SourceEPc
00000000000051a0 T _ZN6snappy13RawUncompressEPKcmPc
0000000000005220 T snappy_uncompress
00000000000052b0 T _ZN6snappy10UncompressEPKcmPNSt7__cxx1112basic_stringIcSt11char_traitsIcESaIcEEE
0000000000005340 T _ZN6snappy23IsValidCompressedBufferEPKcm
00000000000053d0 T snappy_validate_compressed_buffer
00000000000053f0 T _ZN6snappy17IsValidCompressedEPNS_6SourceE
0000000000005440 T _ZN6snappy11RawCompressEPKcmPcPm
00000000000054f0 T snappy_compress
0000000000005540 T _ZN6snappy8CompressEPKcmPNSt7__cxx1112basic_stringIcSt11char_traitsIcESaIcEEE
00000000000055d0 T _ZN6snappy26UncompressAsMuchAsPossibleEPNS_6SourceEPNS_4SinkE
00000000000058e0 T _ZN6snappy10UncompressEPNS_6SourceEPNS_4SinkE
0000000000005c6d ? __func_end
0000000000006040 D _ZTSN6snappy6SourceE
0000000000006060 D _ZTSN6snappy15ByteArraySourceE
0000000000006080 D _ZTSN6snappy22UncheckedByteArraySinkE
00000000000060a8 D _ZTSN6snappy4SinkE
0000000000008ca0 D _ZTVN6snappy6SourceE
0000000000008cd8 D _ZTIN6snappy6SourceE
0000000000008ce8 D _ZTIN6snappy15ByteArraySourceE
0000000000008d00 D _ZTIN6snappy22UncheckedByteArraySinkE
0000000000008d18 D _ZTIN6snappy4SinkE
0000000000008d28 D _ZTVN6snappy4SinkE
0000000000008d68 D _ZTVN6snappy22UncheckedByteArraySinkE
0000000000008da8 D _ZTVN6snappy15ByteArraySourceE
0000000000008de0 ? __sym_end
