# symbols: 89
000000000000038c d __abi_tag
00000000000003ac ? __sym_end
0000000000002280 P _ZNSaIcED2Ev
0000000000002290 P __cxa_begin_catch
00000000000022a0 P strlen
00000000000022b0 P _ZNSt7__cxx1112basic_stringIcSt11char_traitsIcESaIcEED1Ev
00000000000022c0 P __assert_fail
00000000000022d0 P _ZN7leveldb7OptionsC1Ev
00000000000022e0 P _ZNSt7__cxx1112basic_stringIcSt11char_traitsIcESaIcEE13_M_set_lengthEm
00000000000022f0 P _ZNKSt7__cxx1112basic_stringIcSt11char_traitsIcESaIcEE4sizeEv
0000000000002300 P _ZSt19__throw_logic_errorPKc
0000000000002310 P _ZN7leveldb2DB4OpenERKNS_7OptionsERKNSt7__cxx1112basic_stringIcSt11char_traitsIcESaIcEEEPPS0_
0000000000002320 P _ZNSt7__cxx1112basic_stringIcSt11char_traitsIcESaIcEE13_M_local_dataEv
0000000000002330 P _ZNSt7__cxx1112basic_stringIcSt11char_traitsIcESaIcEE7_M_dataEPc
0000000000002340 P __cxa_atexit
0000000000002350 P _ZStlsIcSt11char_traitsIcESaIcEERSt13basic_ostreamIT_T0_ES7_RKNSt7__cxx1112basic_stringIS4_S5_T1_EE
0000000000002360 P _ZStlsISt11char_traitsIcEERSt13basic_ostreamIcT_ES5_PKc
0000000000002370 P _Znwm
0000000000002380 P __monstartup
0000000000002390 P _ZdlPvm
00000000000023a0 P _ZNSolsEPFRSoS_E
00000000000023b0 P _ZNSt7__cxx1112basic_stringIcSt11char_traitsIcESaIcEE12_Alloc_hiderC1EPcRKS3_
00000000000023c0 P _ZNSaIcED1Ev
00000000000023d0 P _ZNKSt7__cxx1112basic_stringIcSt11char_traitsIcESaIcEE7_M_dataEv
00000000000023e0 P _ZNSt7__cxx1112basic_stringIcSt11char_traitsIcESaIcEE13_S_copy_charsEPcPKcS7_
00000000000023f0 P __stack_chk_fail
0000000000002400 P _ZNSt7__cxx1112basic_stringIcSt11char_traitsIcESaIcEE10_M_disposeEv
0000000000002410 P _ZdaPv
0000000000002420 P _ZNKSt7__cxx1112basic_stringIcSt11char_traitsIcESaIcEE4dataEv
0000000000002430 P __cxa_rethrow
0000000000002440 P _ZNSt8ios_base4InitC1Ev
0000000000002450 P __cxa_end_catch
0000000000002460 P _ZNK7leveldb6Status8ToStringB5cxx11Ev
0000000000002470 P _Unwind_Resume
0000000000002480 P _ZNSaIcEC1Ev
0000000000002490 P _ZNSolsEb
00000000000024a0 P _ZNSt7__cxx1112basic_stringIcSt11char_traitsIcESaIcEE9_M_createERmm
00000000000024b0 P _ZNSt7__cxx1112basic_stringIcSt11char_traitsIcESaIcEE11_M_capacityEm
00000000000024c0 ? __dynsym_end
00000000000024c0 T _start
00000000000024f0 T __gmon_start__
0000000000002540 T _dl_relocate_static_pie
0000000000002609 T main
0000000000002963 t _Z41__static_initialization_and_destruction_0ii
00000000000029bf t _GLOBAL__sub_I_main
00000000000029de w _ZNSt11char_traitsIcE6lengthEPKc
0000000000002a22 w _ZN9__gnu_cxx11char_traitsIcE2eqERKcS3_
0000000000002a52 w _ZN9__gnu_cxx11char_traitsIcE6lengthEPKc
0000000000002ac6 w _ZNSt7__cxx1112basic_stringIcSt11char_traitsIcESaIcEE12_Alloc_hiderD1Ev
0000000000002aec w _ZNSt7__cxx1112basic_stringIcSt11char_traitsIcESaIcEEC1IS3_EEPKcRKS3_
0000000000002bb5 w _ZSt8distanceIPKcENSt15iterator_traitsIT_E15difference_typeES3_S3_
0000000000002bf0 w _ZNSt7__cxx1112basic_stringIcSt11char_traitsIcESaIcEE12_M_constructIPKcEEvT_S8_St20forward_iterator_tag
0000000000002d3b w _ZN9__gnu_cxx17__is_null_pointerIKcEEbPT_
0000000000002d5b w _ZSt19__iterator_categoryIPKcENSt15iterator_traitsIT_E17iterator_categoryERKS3_
0000000000002d73 w _ZSt10__distanceIPKcENSt15iterator_traitsIT_E15difference_typeES3_S3_St26random_access_iterator_tag
0000000000002d98 T _ZN6dbTest6openDBEv
0000000000002fba T _ZN6dbTest8putValueENSt7__cxx1112basic_stringIcSt11char_traitsIcESaIcEEES5_
0000000000003264 T _ZN6dbTest11deleteValueENSt7__cxx1112basic_stringIcSt11char_traitsIcESaIcEEE
0000000000003478 T _ZN6dbTestC2Ev
000000000000349e T _ZN6dbTestD2Ev
00000000000034d2 t _Z41__static_initialization_and_destruction_0ii
000000000000352e t _GLOBAL__sub_I__ZN6dbTest6openDBEv
000000000000354e w _ZN7leveldb5SliceC2ERKNSt7__cxx1112basic_stringIcSt11char_traitsIcESaIcEEE
0000000000003592 w _ZN7leveldb6StatusC2Ev
00000000000035b6 w _ZN7leveldb6StatusD2Ev
00000000000035ea w _ZNK7leveldb6Status2okEv
0000000000003610 w _ZN7leveldb6StatusaSEOS0_
0000000000003644 w _ZN7leveldb12WriteOptionsC2Ev
0000000000003664 w _ZSt4moveIRPKcEONSt16remove_referenceIT_E4typeEOS4_
0000000000003680 w _ZSt4swapIPKcENSt9enable_ifIXsrSt6__and_IJSt6__not_ISt15__is_tuple_likeIT_EESt21is_move_constructibleIS6_ESt18is_move_assignableIS6_EEE5valueEvE4typeERS6_SG_
0000000000003700 t atexit
0000000000003720 T __stack_chk_fail_local
000000000000372f ? __func_end
0000000000004000 D _IO_stdin_used
0000000000004008 d _ZN6__pstl9execution2v1L3seqE
0000000000004009 d _ZN6__pstl9execution2v1L3parE
000000000000400a d _ZN6__pstl9execution2v1L9par_unseqE
000000000000400b d _ZN6__pstl9execution2v1L5unseqE
000000000000400c d _ZN7leveldbL13kMajorVersionE
0000000000004010 d _ZN7leveldbL13kMinorVersionE
0000000000004078 d _ZN6__pstl9execution2v1L3seqE
0000000000004079 d _ZN6__pstl9execution2v1L3parE
000000000000407a d _ZN6__pstl9execution2v1L9par_unseqE
000000000000407b d _ZN6__pstl9execution2v1L5unseqE
000000000000407c d _ZN7leveldbL13kMajorVersionE
0000000000004080 d _ZN7leveldbL13kMinorVersionE
0000000000006010 v DW.ref.__gxx_personality_v0
0000000000006040 D _ZSt4cout@GLIBCXX_3.4
0000000000006150 d called.0
0000000000006154 d completed.0
0000000000006155 d _ZStL8__ioinit
0000000000006156 d _ZStL8__ioinit
0000000000006157 ? __sym_end
